; Function Attrs: mustprogress nounwind uwtable
define hidden noundef zeroext i1 @_ZN17KlassSubGraphInfo18is_non_early_klassEP5Klass(ptr noundef %0) local_unnamed_addr #2 align 2 {
  %2 = getelementptr inbounds i8, ptr %0, i64 12
  %3 = load i32, ptr %2, align 4
  %4 = icmp eq i32 %3, 6
  br i1 %4, label %5, label %8

5:                                                ; preds = %1
  %6 = getelementptr inbounds i8, ptr %0, i64 224
  %7 = load ptr, ptr %6, align 8
  %.phi.trans.insert = getelementptr inbounds i8, ptr %7, i64 12
  %.pre = load i32, ptr %.phi.trans.insert, align 4
  br label %8

8:                                                ; preds = %5, %1
  %9 = phi i32 [ %.pre, %5 ], [ %3, %1 ]
  %.0 = phi ptr [ %7, %5 ], [ %0, %1 ]
  %10 = icmp slt i32 %9, 5
  br i1 %10, label %11, label %_ZN12ResourceMarkD2Ev.exit

11:                                               ; preds = %8
  %12 = tail call noundef zeroext i1 @_ZN22SystemDictionaryShared14is_early_klassEP13InstanceKlass(ptr noundef nonnull %.0) #20
  br i1 %12, label %_ZN12ResourceMarkD2Ev.exit, label %13

13:                                               ; preds = %11
  %14 = tail call align 8 ptr @llvm.threadlocal.address.p0(ptr align 8 @_ZN6Thread12_thr_currentE)
  %15 = load ptr, ptr %14, align 8
  %16 = getelementptr inbounds i8, ptr %15, i64 800
  %17 = load ptr, ptr %16, align 8
  %18 = getelementptr inbounds i8, ptr %17, i64 24
  %19 = load ptr, ptr %18, align 8
  %20 = getelementptr inbounds i8, ptr %17, i64 32
  %21 = load ptr, ptr %20, align 8
  %22 = getelementptr inbounds i8, ptr %17, i64 40
  %23 = load ptr, ptr %22, align 8
  %24 = getelementptr inbounds i8, ptr %17, i64 8
  %25 = load i64, ptr %24, align 8
  %26 = load volatile ptr, ptr getelementptr inbounds (i8, ptr @_ZN16LogTagSetMappingILN6LogTag4typeE14ELS1_52ELS1_0ELS1_0ELS1_0ELS1_0EE7_tagsetE, i64 64), align 8
  %.not = icmp eq ptr %26, null
  br i1 %.not, label %29, label %27

27:                                               ; preds = %13
  %28 = tail call noundef ptr @_ZNK5Klass13external_nameEv(ptr noundef nonnull align 8 dereferenceable(196) %.0) #20
  tail call void (ptr, ...) @_ZN7LogImplILN6LogTag4typeE14ELS1_52ELS1_0ELS1_0ELS1_0ELS1_0EE5writeILN8LogLevel4typeE3EEEvPKcz(ptr noundef nonnull @.str.48, ptr noundef %28)
  br label %29

29:                                               ; preds = %13, %27
  %30 = load ptr, ptr %19, align 8
  %.not.i.i.i.i = icmp eq ptr %30, null
  br i1 %.not.i.i.i.i, label %32, label %31

31:                                               ; preds = %29
  tail call void @_ZN5Arena17set_size_in_bytesEm(ptr noundef nonnull align 8 dereferenceable(48) %17, i64 noundef %25) #20
  tail call void @_ZN5Chunk9next_chopEPS_(ptr noundef nonnull %19) #20
  br label %32

32:                                               ; preds = %31, %29
  %33 = load ptr, ptr %20, align 8
  %.not8.i.i.i.i = icmp eq ptr %33, %21
  br i1 %.not8.i.i.i.i, label %_ZN12ResourceMarkD2Ev.exit, label %34

34:                                               ; preds = %32
  store ptr %19, ptr %18, align 8
  store ptr %21, ptr %20, align 8
  store ptr %23, ptr %22, align 8
  br label %_ZN12ResourceMarkD2Ev.exit

_ZN12ResourceMarkD2Ev.exit:                       ; preds = %34, %32, %8, %11
  %.06 = phi i1 [ false, %11 ], [ false, %8 ], [ true, %32 ], [ true, %34 ]
  ret i1 %.06
}